target datalayout = "e-m:e-p270:32:32-p271:32:32-p272:64:64-i64:64-i128:128-f80:128-n8:16:32:64-S128"
target triple = "x86_64-pc-linux-gnu"

%struct.ssl_hmac_st = type { ptr, ptr }

; Function Attrs: nounwind uwtable
define i64 @ssl_hmac_size(ptr noundef %0) #1 {
  %2 = alloca i64, align 8
  %3 = alloca ptr, align 8
  store ptr %0, ptr %3, align 8, !tbaa !289
  %4 = load ptr, ptr %3, align 8, !tbaa !289
  %5 = getelementptr inbounds nuw %struct.ssl_hmac_st, ptr %4, i32 0, i32 0
  %6 = load ptr, ptr %5, align 8, !tbaa !308
  %7 = icmp ne ptr %6, null
  br i1 %7, label %8, label %13

8:                                                ; preds = %1
  %9 = load ptr, ptr %3, align 8, !tbaa !289
  %10 = getelementptr inbounds nuw %struct.ssl_hmac_st, ptr %9, i32 0, i32 0
  %11 = load ptr, ptr %10, align 8, !tbaa !308
  %12 = call i64 @EVP_MAC_CTX_get_mac_size(ptr noundef %11)
  store i64 %12, ptr %2, align 8
  br label %22

13:                                               ; preds = %1
  %14 = load ptr, ptr %3, align 8, !tbaa !289
  %15 = getelementptr inbounds nuw %struct.ssl_hmac_st, ptr %14, i32 0, i32 1
  %16 = load ptr, ptr %15, align 8, !tbaa !315
  %17 = icmp ne ptr %16, null
  br i1 %17, label %18, label %21

18:                                               ; preds = %13
  %19 = load ptr, ptr %3, align 8, !tbaa !289
  %20 = call i64 @ssl_hmac_old_size(ptr noundef %19)
  store i64 %20, ptr %2, align 8
  br label %22

21:                                               ; preds = %13
  store i64 0, ptr %2, align 8
  br label %22

22:                                               ; preds = %21, %18, %8
  %23 = load i64, ptr %2, align 8
  ret i64 %23
}