; Function Attrs: nounwind uwtable
define i64 @ssl_hmac_size(ptr noundef %0) local_unnamed_addr #2 {
  %2 = load ptr, ptr %0, align 8, !tbaa !257
  %.not = icmp eq ptr %2, null
  br i1 %.not, label %5, label %3

3:                                                ; preds = %1
  %4 = tail call i64 @EVP_MAC_CTX_get_mac_size(ptr noundef nonnull %2) #14
  br label %10

5:                                                ; preds = %1
  %6 = getelementptr inbounds nuw i8, ptr %0, i64 8
  %7 = load ptr, ptr %6, align 8, !tbaa !262
  %.not5 = icmp eq ptr %7, null
  br i1 %.not5, label %10, label %8

8:                                                ; preds = %5
  %9 = tail call i64 @ssl_hmac_old_size(ptr noundef nonnull %0) #14
  br label %10

10:                                               ; preds = %5, %8, %3
  %.0 = phi i64 [ %4, %3 ], [ %9, %8 ], [ 0, %5 ]
  ret i64 %.0
}